target datalayout = "e-m:e-p270:32:32-p271:32:32-p272:64:64-i64:64-i128:128-f80:128-n8:16:32:64-S128"
target triple = "x86_64-pc-linux-gnu"

%struct.CVodeMemRec = type { ptr, double, ptr, ptr, i32, i32, double, double, ptr, i32, i32, ptr, ptr, i32, [13 x ptr], ptr, ptr, ptr, ptr, ptr, ptr, ptr, ptr, ptr, i32, i32, double, i32, i32, i32, i32, i32, double, double, double, double, double, double, double, double, [14 x double], [6 x double], [13 x double], double, double, double, double, double, double, double, i32, double, i32, i64, i32, i32, i32, double, double, double, double, double, double, double, double, double, double, double, double, i64, i32, i64, i64, i64, i64, i64, i64, i64, i32, double, double, double, i64, i64, i64, i64, ptr, i32, ptr, i32, ptr, ptr, ptr, ptr, ptr, i64, double, i32, i64, double, double, double, i32, double, i32, i32, i32, i32, i32, ptr, i64, i32, [6 x [4 x double]], i32, i64, ptr, i32, ptr, ptr, double, double, double, ptr, ptr, ptr, double, double, i32, i32, i64, ptr, i32, ptr, i32, i32, [13 x double], [13 x double], [13 x ptr], i32 }

@__func__.CVodeCreate = private unnamed_addr constant [12 x i8] c"CVodeCreate\00", align 1
@.str = private unnamed_addr constant [113 x i8] c"generated/home/dtcxzyw/WorkSpace/Projects/compilers/llvm-opt-benchmark/bench/sundials/sundials/src/cvode/cvode.c\00", align 1
@.str.1 = private unnamed_addr constant [65 x i8] c"Illegal value for lmm. The legal values are CV_ADAMS and CV_BDF.\00", align 1
@.str.2 = private unnamed_addr constant [23 x i8] c"sunctx = NULL illegal.\00", align 1
@.str.3 = private unnamed_addr constant [32 x i8] c"Allocation of cvode_mem failed.\00", align 1

; Function Attrs: nounwind uwtable
define ptr @CVodeCreate(i32 noundef %0, ptr noundef %1) #0 {
  %3 = alloca ptr, align 8
  %4 = alloca i32, align 4
  %5 = alloca ptr, align 8
  %6 = alloca i32, align 4
  %7 = alloca ptr, align 8
  %8 = alloca i32, align 4
  store i32 %0, ptr %4, align 4, !tbaa !3
  store ptr %1, ptr %5, align 8, !tbaa !7
  call void @llvm.lifetime.start.p0(i64 4, ptr %6) #10
  call void @llvm.lifetime.start.p0(i64 8, ptr %7) #10
  %9 = load i32, ptr %4, align 4, !tbaa !3
  %10 = icmp ne i32 %9, 1
  br i1 %10, label %11, label %15

11:                                               ; preds = %2
  %12 = load i32, ptr %4, align 4, !tbaa !3
  %13 = icmp ne i32 %12, 2
  br i1 %13, label %14, label %15

14:                                               ; preds = %11
  call void (ptr, i32, i32, ptr, ptr, ptr, ...) @cvProcessError(ptr noundef null, i32 noundef 0, i32 noundef 242, ptr noundef @__func__.CVodeCreate, ptr noundef @.str, ptr noundef @.str.1)
  store ptr null, ptr %3, align 8
  store i32 1, ptr %8, align 4
  br label %156

15:                                               ; preds = %11, %2
  %16 = load ptr, ptr %5, align 8, !tbaa !7
  %17 = icmp eq ptr %16, null
  br i1 %17, label %18, label %19

18:                                               ; preds = %15
  call void (ptr, i32, i32, ptr, ptr, ptr, ...) @cvProcessError(ptr noundef null, i32 noundef 0, i32 noundef 248, ptr noundef @__func__.CVodeCreate, ptr noundef @.str, ptr noundef @.str.2)
  store ptr null, ptr %3, align 8
  store i32 1, ptr %8, align 4
  br label %156

19:                                               ; preds = %15
  store ptr null, ptr %7, align 8, !tbaa !10
  %20 = call noalias ptr @malloc(i64 noundef 1840) #11
  store ptr %20, ptr %7, align 8, !tbaa !10
  %21 = load ptr, ptr %7, align 8, !tbaa !10
  %22 = icmp eq ptr %21, null
  br i1 %22, label %23, label %24

23:                                               ; preds = %19
  call void (ptr, i32, i32, ptr, ptr, ptr, ...) @cvProcessError(ptr noundef null, i32 noundef 0, i32 noundef 256, ptr noundef @__func__.CVodeCreate, ptr noundef @.str, ptr noundef @.str.3)
  store ptr null, ptr %3, align 8
  store i32 1, ptr %8, align 4
  br label %156

24:                                               ; preds = %19
  %25 = load ptr, ptr %7, align 8, !tbaa !10
  call void @llvm.memset.p0.i64(ptr align 8 %25, i8 0, i64 1840, i1 false)
  %26 = load i32, ptr %4, align 4, !tbaa !3
  %27 = icmp eq i32 %26, 1
  %28 = select i1 %27, i32 12, i32 5
  store i32 %28, ptr %6, align 4, !tbaa !3
  %29 = load ptr, ptr %5, align 8, !tbaa !7
  %30 = load ptr, ptr %7, align 8, !tbaa !10
  %31 = getelementptr inbounds nuw %struct.CVodeMemRec, ptr %30, i32 0, i32 0
  store ptr %29, ptr %31, align 8, !tbaa !12
  %32 = load i32, ptr %4, align 4, !tbaa !3
  %33 = load ptr, ptr %7, align 8, !tbaa !10
  %34 = getelementptr inbounds nuw %struct.CVodeMemRec, ptr %33, i32 0, i32 4
  store i32 %32, ptr %34, align 8, !tbaa !21
  %35 = load ptr, ptr %7, align 8, !tbaa !10
  %36 = getelementptr inbounds nuw %struct.CVodeMemRec, ptr %35, i32 0, i32 1
  store double 0x3CB0000000000000, ptr %36, align 8, !tbaa !22
  %37 = load ptr, ptr %7, align 8, !tbaa !10
  %38 = getelementptr inbounds nuw %struct.CVodeMemRec, ptr %37, i32 0, i32 2
  store ptr null, ptr %38, align 8, !tbaa !23
  %39 = load ptr, ptr %7, align 8, !tbaa !10
  %40 = getelementptr inbounds nuw %struct.CVodeMemRec, ptr %39, i32 0, i32 3
  store ptr null, ptr %40, align 8, !tbaa !24
  %41 = load ptr, ptr %7, align 8, !tbaa !10
  %42 = getelementptr inbounds nuw %struct.CVodeMemRec, ptr %41, i32 0, i32 5
  store i32 0, ptr %42, align 4, !tbaa !25
  %43 = load ptr, ptr %7, align 8, !tbaa !10
  %44 = getelementptr inbounds nuw %struct.CVodeMemRec, ptr %43, i32 0, i32 9
  store i32 1, ptr %44, align 8, !tbaa !26
  %45 = load ptr, ptr %7, align 8, !tbaa !10
  %46 = getelementptr inbounds nuw %struct.CVodeMemRec, ptr %45, i32 0, i32 10
  store i32 0, ptr %46, align 4, !tbaa !27
  %47 = load ptr, ptr %7, align 8, !tbaa !10
  %48 = getelementptr inbounds nuw %struct.CVodeMemRec, ptr %47, i32 0, i32 11
  store ptr null, ptr %48, align 8, !tbaa !28
  %49 = load ptr, ptr %7, align 8, !tbaa !10
  %50 = getelementptr inbounds nuw %struct.CVodeMemRec, ptr %49, i32 0, i32 12
  store ptr null, ptr %50, align 8, !tbaa !29
  %51 = load ptr, ptr %7, align 8, !tbaa !10
  %52 = getelementptr inbounds nuw %struct.CVodeMemRec, ptr %51, i32 0, i32 109
  store ptr null, ptr %52, align 8, !tbaa !30
  %53 = load ptr, ptr %7, align 8, !tbaa !10
  %54 = getelementptr inbounds nuw %struct.CVodeMemRec, ptr %53, i32 0, i32 110
  store i64 0, ptr %54, align 8, !tbaa !31
  %55 = load i32, ptr %6, align 4, !tbaa !3
  %56 = load ptr, ptr %7, align 8, !tbaa !10
  %57 = getelementptr inbounds nuw %struct.CVodeMemRec, ptr %56, i32 0, i32 52
  store i32 %55, ptr %57, align 8, !tbaa !32
  %58 = load ptr, ptr %7, align 8, !tbaa !10
  %59 = getelementptr inbounds nuw %struct.CVodeMemRec, ptr %58, i32 0, i32 53
  store i64 500, ptr %59, align 8, !tbaa !33
  %60 = load ptr, ptr %7, align 8, !tbaa !10
  %61 = getelementptr inbounds nuw %struct.CVodeMemRec, ptr %60, i32 0, i32 54
  store i32 10, ptr %61, align 8, !tbaa !34
  %62 = load ptr, ptr %7, align 8, !tbaa !10
  %63 = getelementptr inbounds nuw %struct.CVodeMemRec, ptr %62, i32 0, i32 111
  store i32 0, ptr %63, align 8, !tbaa !35
  %64 = load ptr, ptr %7, align 8, !tbaa !10
  %65 = getelementptr inbounds nuw %struct.CVodeMemRec, ptr %64, i32 0, i32 32
  store double 0.000000e+00, ptr %65, align 8, !tbaa !36
  %66 = load ptr, ptr %7, align 8, !tbaa !10
  %67 = getelementptr inbounds nuw %struct.CVodeMemRec, ptr %66, i32 0, i32 57
  store double 0.000000e+00, ptr %67, align 8, !tbaa !37
  %68 = load ptr, ptr %7, align 8, !tbaa !10
  %69 = getelementptr inbounds nuw %struct.CVodeMemRec, ptr %68, i32 0, i32 58
  store double 0.000000e+00, ptr %69, align 8, !tbaa !38
  %70 = load ptr, ptr %7, align 8, !tbaa !10
  %71 = getelementptr inbounds nuw %struct.CVodeMemRec, ptr %70, i32 0, i32 60
  store double 0.000000e+00, ptr %71, align 8, !tbaa !39
  %72 = load ptr, ptr %7, align 8, !tbaa !10
  %73 = getelementptr inbounds nuw %struct.CVodeMemRec, ptr %72, i32 0, i32 61
  store double 1.500000e+00, ptr %73, align 8, !tbaa !40
  %74 = load ptr, ptr %7, align 8, !tbaa !10
  %75 = getelementptr inbounds nuw %struct.CVodeMemRec, ptr %74, i32 0, i32 62
  store double 1.000000e+04, ptr %75, align 8, !tbaa !41
  %76 = load ptr, ptr %7, align 8, !tbaa !10
  %77 = getelementptr inbounds nuw %struct.CVodeMemRec, ptr %76, i32 0, i32 63
  store double 1.000000e+01, ptr %77, align 8, !tbaa !42
  %78 = load ptr, ptr %7, align 8, !tbaa !10
  %79 = getelementptr inbounds nuw %struct.CVodeMemRec, ptr %78, i32 0, i32 64
  store double 1.000000e+01, ptr %79, align 8, !tbaa !43
  %80 = load ptr, ptr %7, align 8, !tbaa !10
  %81 = getelementptr inbounds nuw %struct.CVodeMemRec, ptr %80, i32 0, i32 65
  store double 1.000000e-01, ptr %81, align 8, !tbaa !44
  %82 = load ptr, ptr %7, align 8, !tbaa !10
  %83 = getelementptr inbounds nuw %struct.CVodeMemRec, ptr %82, i32 0, i32 66
  store double 1.000000e-01, ptr %83, align 8, !tbaa !45
  %84 = load ptr, ptr %7, align 8, !tbaa !10
  %85 = getelementptr inbounds nuw %struct.CVodeMemRec, ptr %84, i32 0, i32 67
  store double 2.000000e-01, ptr %85, align 8, !tbaa !46
  %86 = load ptr, ptr %7, align 8, !tbaa !10
  %87 = getelementptr inbounds nuw %struct.CVodeMemRec, ptr %86, i32 0, i32 68
  store double 2.500000e-01, ptr %87, align 8, !tbaa !47
  %88 = load ptr, ptr %7, align 8, !tbaa !10
  %89 = getelementptr inbounds nuw %struct.CVodeMemRec, ptr %88, i32 0, i32 69
  store i64 10, ptr %89, align 8, !tbaa !48
  %90 = load ptr, ptr %7, align 8, !tbaa !10
  %91 = getelementptr inbounds nuw %struct.CVodeMemRec, ptr %90, i32 0, i32 70
  store i32 2, ptr %91, align 8, !tbaa !49
  %92 = load ptr, ptr %7, align 8, !tbaa !10
  %93 = getelementptr inbounds nuw %struct.CVodeMemRec, ptr %92, i32 0, i32 24
  store i32 0, ptr %93, align 8, !tbaa !50
  %94 = load ptr, ptr %7, align 8, !tbaa !10
  %95 = getelementptr inbounds nuw %struct.CVodeMemRec, ptr %94, i32 0, i32 25
  store i32 0, ptr %95, align 4, !tbaa !51
  %96 = load ptr, ptr %7, align 8, !tbaa !10
  %97 = getelementptr inbounds nuw %struct.CVodeMemRec, ptr %96, i32 0, i32 55
  store i32 7, ptr %97, align 4, !tbaa !52
  %98 = load ptr, ptr %7, align 8, !tbaa !10
  %99 = getelementptr inbounds nuw %struct.CVodeMemRec, ptr %98, i32 0, i32 56
  store i32 10, ptr %99, align 8, !tbaa !53
  %100 = load ptr, ptr %7, align 8, !tbaa !10
  %101 = getelementptr inbounds nuw %struct.CVodeMemRec, ptr %100, i32 0, i32 51
  store double 1.000000e-01, ptr %101, align 8, !tbaa !54
  %102 = load ptr, ptr %7, align 8, !tbaa !10
  %103 = getelementptr inbounds nuw %struct.CVodeMemRec, ptr %102, i32 0, i32 95
  store i64 20, ptr %103, align 8, !tbaa !55
  %104 = load ptr, ptr %7, align 8, !tbaa !10
  %105 = getelementptr inbounds nuw %struct.CVodeMemRec, ptr %104, i32 0, i32 96
  store double 3.000000e-01, ptr %105, align 8, !tbaa !56
  %106 = load ptr, ptr %7, align 8, !tbaa !10
  %107 = getelementptr inbounds nuw %struct.CVodeMemRec, ptr %106, i32 0, i32 89
  store i32 0, ptr %107, align 8, !tbaa !57
  %108 = load ptr, ptr %7, align 8, !tbaa !10
  %109 = getelementptr inbounds nuw %struct.CVodeMemRec, ptr %108, i32 0, i32 23
  store ptr null, ptr %109, align 8, !tbaa !58
  %110 = load ptr, ptr %7, align 8, !tbaa !10
  %111 = getelementptr inbounds nuw %struct.CVodeMemRec, ptr %110, i32 0, i32 13
  store i32 0, ptr %111, align 8, !tbaa !59
  %112 = load ptr, ptr %7, align 8, !tbaa !10
  %113 = getelementptr inbounds nuw %struct.CVodeMemRec, ptr %112, i32 0, i32 122
  store ptr null, ptr %113, align 8, !tbaa !60
  %114 = load ptr, ptr %7, align 8, !tbaa !10
  %115 = getelementptr inbounds nuw %struct.CVodeMemRec, ptr %114, i32 0, i32 123
  store ptr null, ptr %115, align 8, !tbaa !61
  %116 = load ptr, ptr %7, align 8, !tbaa !10
  %117 = getelementptr inbounds nuw %struct.CVodeMemRec, ptr %116, i32 0, i32 124
  store ptr null, ptr %117, align 8, !tbaa !62
  %118 = load ptr, ptr %7, align 8, !tbaa !10
  %119 = getelementptr inbounds nuw %struct.CVodeMemRec, ptr %118, i32 0, i32 117
  store ptr null, ptr %119, align 8, !tbaa !63
  %120 = load ptr, ptr %7, align 8, !tbaa !10
  %121 = getelementptr inbounds nuw %struct.CVodeMemRec, ptr %120, i32 0, i32 118
  store ptr null, ptr %121, align 8, !tbaa !64
  %122 = load ptr, ptr %7, align 8, !tbaa !10
  %123 = getelementptr inbounds nuw %struct.CVodeMemRec, ptr %122, i32 0, i32 115
  store ptr null, ptr %123, align 8, !tbaa !65
  %124 = load ptr, ptr %7, align 8, !tbaa !10
  %125 = getelementptr inbounds nuw %struct.CVodeMemRec, ptr %124, i32 0, i32 116
  store i32 0, ptr %125, align 8, !tbaa !66
  %126 = load ptr, ptr %7, align 8, !tbaa !10
  %127 = getelementptr inbounds nuw %struct.CVodeMemRec, ptr %126, i32 0, i32 130
  store ptr null, ptr %127, align 8, !tbaa !67
  %128 = load ptr, ptr %7, align 8, !tbaa !10
  %129 = getelementptr inbounds nuw %struct.CVodeMemRec, ptr %128, i32 0, i32 131
  store i32 1, ptr %129, align 8, !tbaa !68
  %130 = load ptr, ptr %7, align 8, !tbaa !10
  %131 = getelementptr inbounds nuw %struct.CVodeMemRec, ptr %130, i32 0, i32 132
  store ptr null, ptr %131, align 8, !tbaa !69
  %132 = load ptr, ptr %7, align 8, !tbaa !10
  %133 = getelementptr inbounds nuw %struct.CVodeMemRec, ptr %132, i32 0, i32 133
  store i32 0, ptr %133, align 8, !tbaa !70
  %134 = load ptr, ptr %7, align 8, !tbaa !10
  %135 = getelementptr inbounds nuw %struct.CVodeMemRec, ptr %134, i32 0, i32 134
  store i32 0, ptr %135, align 4, !tbaa !71
  %136 = load i32, ptr %6, align 4, !tbaa !3
  %137 = load ptr, ptr %7, align 8, !tbaa !10
  %138 = getelementptr inbounds nuw %struct.CVodeMemRec, ptr %137, i32 0, i32 104
  store i32 %136, ptr %138, align 8, !tbaa !72
  %139 = load ptr, ptr %7, align 8, !tbaa !10
  %140 = getelementptr inbounds nuw %struct.CVodeMemRec, ptr %139, i32 0, i32 84
  store i64 89, ptr %140, align 8, !tbaa !73
  %141 = load ptr, ptr %7, align 8, !tbaa !10
  %142 = getelementptr inbounds nuw %struct.CVodeMemRec, ptr %141, i32 0, i32 85
  store i64 40, ptr %142, align 8, !tbaa !74
  %143 = load ptr, ptr %7, align 8, !tbaa !10
  %144 = getelementptr inbounds nuw %struct.CVodeMemRec, ptr %143, i32 0, i32 106
  store i32 0, ptr %144, align 8, !tbaa !75
  %145 = load ptr, ptr %7, align 8, !tbaa !10
  %146 = getelementptr inbounds nuw %struct.CVodeMemRec, ptr %145, i32 0, i32 107
  store i32 0, ptr %146, align 4, !tbaa !76
  %147 = load ptr, ptr %7, align 8, !tbaa !10
  %148 = getelementptr inbounds nuw %struct.CVodeMemRec, ptr %147, i32 0, i32 108
  store i32 0, ptr %148, align 8, !tbaa !77
  %149 = load ptr, ptr %7, align 8, !tbaa !10
  %150 = getelementptr inbounds nuw %struct.CVodeMemRec, ptr %149, i32 0, i32 86
  store ptr null, ptr %150, align 8, !tbaa !78
  %151 = load ptr, ptr %7, align 8, !tbaa !10
  %152 = getelementptr inbounds nuw %struct.CVodeMemRec, ptr %151, i32 0, i32 87
  store i32 0, ptr %152, align 8, !tbaa !79
  %153 = load ptr, ptr %7, align 8, !tbaa !10
  %154 = getelementptr inbounds nuw %struct.CVodeMemRec, ptr %153, i32 0, i32 138
  store i32 0, ptr %154, align 8, !tbaa !80
  %155 = load ptr, ptr %7, align 8, !tbaa !10
  store ptr %155, ptr %3, align 8
  store i32 1, ptr %8, align 4
  br label %156

156:                                              ; preds = %24, %23, %18, %14
  call void @llvm.lifetime.end.p0(i64 8, ptr %7) #10
  call void @llvm.lifetime.end.p0(i64 4, ptr %6) #10
  %157 = load ptr, ptr %3, align 8
  ret ptr %157
}