; Function Attrs: nounwind uwtable
define noalias noundef ptr @CVodeCreate(i32 noundef %0, ptr noundef %1) local_unnamed_addr #0 {
  %3 = add i32 %0, -3
  %or.cond = icmp ult i32 %3, -2
  br i1 %or.cond, label %4, label %5

4:                                                ; preds = %2
  tail call void (ptr, i32, i32, ptr, ptr, ptr, ...) @cvProcessError(ptr noundef null, i32 noundef 0, i32 noundef 242, ptr noundef nonnull @__func__.CVodeCreate, ptr noundef nonnull @.str, ptr noundef nonnull @.str.1)
  br label %39

5:                                                ; preds = %2
  %6 = icmp eq ptr %1, null
  br i1 %6, label %7, label %8

7:                                                ; preds = %5
  tail call void (ptr, i32, i32, ptr, ptr, ptr, ...) @cvProcessError(ptr noundef null, i32 noundef 0, i32 noundef 248, ptr noundef nonnull @__func__.CVodeCreate, ptr noundef nonnull @.str, ptr noundef nonnull @.str.2)
  br label %39

8:                                                ; preds = %5
  %calloc = tail call dereferenceable_or_null(1840) ptr @calloc(i64 1, i64 1840)
  %9 = icmp eq ptr %calloc, null
  br i1 %9, label %10, label %11

10:                                               ; preds = %8
  tail call void (ptr, i32, i32, ptr, ptr, ptr, ...) @cvProcessError(ptr noundef null, i32 noundef 0, i32 noundef 256, ptr noundef nonnull @__func__.CVodeCreate, ptr noundef nonnull @.str, ptr noundef nonnull @.str.3)
  br label %39

11:                                               ; preds = %8
  %12 = icmp eq i32 %0, 1
  %13 = select i1 %12, i32 12, i32 5
  store ptr %1, ptr %calloc, align 8, !tbaa !3
  %14 = getelementptr inbounds nuw i8, ptr %calloc, i64 32
  store i32 %0, ptr %14, align 8, !tbaa !17
  %15 = getelementptr inbounds nuw i8, ptr %calloc, i64 8
  store double 0x3CB0000000000000, ptr %15, align 8, !tbaa !18
  %16 = getelementptr inbounds nuw i8, ptr %calloc, i64 64
  store i32 1, ptr %16, align 8, !tbaa !19
  %17 = getelementptr inbounds nuw i8, ptr %calloc, i64 712
  store i32 %13, ptr %17, align 8, !tbaa !20
  %18 = getelementptr inbounds nuw i8, ptr %calloc, i64 720
  store i64 500, ptr %18, align 8, !tbaa !21
  %19 = getelementptr inbounds nuw i8, ptr %calloc, i64 728
  store i32 10, ptr %19, align 8, !tbaa !22
  %20 = getelementptr inbounds nuw i8, ptr %calloc, i64 776
  store double 1.500000e+00, ptr %20, align 8, !tbaa !23
  %21 = getelementptr inbounds nuw i8, ptr %calloc, i64 784
  store double 1.000000e+04, ptr %21, align 8, !tbaa !24
  %22 = getelementptr inbounds nuw i8, ptr %calloc, i64 792
  store double 1.000000e+01, ptr %22, align 8, !tbaa !25
  %23 = getelementptr inbounds nuw i8, ptr %calloc, i64 800
  store double 1.000000e+01, ptr %23, align 8, !tbaa !26
  %24 = getelementptr inbounds nuw i8, ptr %calloc, i64 808
  store double 1.000000e-01, ptr %24, align 8, !tbaa !27
  %25 = getelementptr inbounds nuw i8, ptr %calloc, i64 816
  store double 1.000000e-01, ptr %25, align 8, !tbaa !28
  %26 = getelementptr inbounds nuw i8, ptr %calloc, i64 824
  store double 2.000000e-01, ptr %26, align 8, !tbaa !29
  %27 = getelementptr inbounds nuw i8, ptr %calloc, i64 832
  store double 2.500000e-01, ptr %27, align 8, !tbaa !30
  %28 = getelementptr inbounds nuw i8, ptr %calloc, i64 840
  store i64 10, ptr %28, align 8, !tbaa !31
  %29 = getelementptr inbounds nuw i8, ptr %calloc, i64 848
  store i32 2, ptr %29, align 8, !tbaa !32
  %30 = getelementptr inbounds nuw i8, ptr %calloc, i64 732
  store i32 7, ptr %30, align 4, !tbaa !33
  %31 = getelementptr inbounds nuw i8, ptr %calloc, i64 736
  store i32 10, ptr %31, align 8, !tbaa !34
  %32 = getelementptr inbounds nuw i8, ptr %calloc, i64 704
  store double 1.000000e-01, ptr %32, align 8, !tbaa !35
  %33 = getelementptr inbounds nuw i8, ptr %calloc, i64 1048
  store i64 20, ptr %33, align 8, !tbaa !36
  %34 = getelementptr inbounds nuw i8, ptr %calloc, i64 1056
  store double 3.000000e-01, ptr %34, align 8, !tbaa !37
  %35 = getelementptr inbounds nuw i8, ptr %calloc, i64 1496
  store i32 1, ptr %35, align 8, !tbaa !38
  %36 = getelementptr inbounds nuw i8, ptr %calloc, i64 1120
  store i32 %13, ptr %36, align 8, !tbaa !39
  %37 = getelementptr inbounds nuw i8, ptr %calloc, i64 960
  store i64 89, ptr %37, align 8, !tbaa !40
  %38 = getelementptr inbounds nuw i8, ptr %calloc, i64 968
  store i64 40, ptr %38, align 8, !tbaa !41
  br label %39

39:                                               ; preds = %11, %10, %7, %4
  %.0 = phi ptr [ null, %4 ], [ null, %7 ], [ null, %10 ], [ %calloc, %11 ]
  ret ptr %.0
}